Certificate:
    Data:
        Version: 3 (0x2)
        Serial Number: 2 (0x2)
    Signature Algorithm: sha1WithRSAEncryption
        Issuer: CN=Fake certifying authority, ST=MH, C=IN/emailAddress=chandrakant.agarkar@linux.com, O=Linux Organization, OU=random organization
        Validity
            Not Before: Jun 28 03:43:03 2019 GMT
            Not After : Jun 26 03:43:03 2024 GMT
        Subject: CN=client, ST=MH, C=IN/emailAddress=chandrakant.agarkar@linux.com, O=Linux Organization, OU=client organization
        Subject Public Key Info:
            Public Key Algorithm: rsaEncryption
                Public-Key: (2048 bit)
                Modulus:
                    00:e8:5e:f2:e6:d6:34:7c:ed:14:d3:ab:ae:28:f7:
                    d1:55:9c:29:d6:14:4a:15:7b:5a:57:c8:60:f9:2a:
                    3e:33:4a:74:b0:b4:d5:e5:9a:85:db:66:3e:f6:60:
                    b1:8f:a7:42:43:1f:bd:4f:00:9a:1f:e8:8f:a6:98:
                    54:63:d7:03:7e:26:27:42:3f:75:b9:2c:1d:be:f8:
                    ca:a4:98:25:90:df:f6:54:9c:85:53:e0:a3:27:59:
                    ce:87:de:3e:51:3c:bb:46:9a:2c:68:b2:ca:f0:f7:
                    5e:89:0f:36:be:1f:b4:24:94:d8:bd:74:f7:38:e6:
                    b6:5e:a9:60:9f:1a:ce:6f:c1:53:b2:0f:9a:c6:57:
                    3b:2e:01:9a:8f:81:01:00:e1:5a:f4:a4:cf:ef:71:
                    97:5e:52:26:f0:8c:95:4c:0d:d3:3e:ae:e0:2a:73:
                    a1:1e:bc:81:4d:fa:b0:8f:83:ea:ee:3e:0c:9f:88:
                    54:67:70:ab:82:b1:5d:d7:11:b0:c1:84:82:45:33:
                    e1:f6:f1:53:71:6c:0f:1f:0e:c0:7d:44:e6:e4:bc:
                    d2:c7:0d:74:42:8d:e2:a1:8d:02:e6:46:71:bf:32:
                    7c:c4:7b:0b:18:1e:2c:89:ab:bd:22:fa:de:57:f6:
                    15:69:ad:f9:f0:1c:83:8d:9e:22:6c:62:16:ea:20:
                    9c:89
                Exponent: 65537 (0x10001)
        X509v3 extensions:
            X509v3 Basic Constraints: 
                CA:FALSE
            X509v3 Key Usage: 
                Digital Signature, Non Repudiation, Key Encipherment
            X509v3 Subject Alternative Name: 
                DNS:client.
    Signature Algorithm: sha1WithRSAEncryption
         20:57:c8:71:26:c8:77:97:24:4e:48:8a:47:01:2a:db:2d:a4:
         04:91:69:7e:97:ba:6e:65:90:14:c1:36:12:71:0c:83:26:51:
         4c:66:62:94:b0:61:c6:a7:8b:eb:91:61:34:9b:8a:15:c5:83:
         f3:2e:c5:87:48:22:55:dc:f7:46:27:89:fd:64:2f:b1:6c:ee:
         b0:2c:47:d9:2f:48:09:6d:eb:f8:64:41:76:7d:c3:7b:95:0e:
         55:0f:7a:e7:8a:15:99:ac:c1:67:c0:8d:e7:98:b6:dc:3e:04:
         18:93:6b:c0:40:34:50:90:47:95:a5:52:17:9c:be:c9:fd:45:
         75:af:1f:f9:31:b5:6f:38:ed:68:1f:cd:25:43:b7:f2:06:12:
         1f:86:b9:11:5d:2c:b3:7d:1e:7c:3c:4a:c1:df:b7:5e:dd:b9:
         f6:c2:2e:18:1f:45:da:b7:36:ed:6f:a1:d7:05:42:22:da:41:
         0d:28:22:47:09:05:38:6c:ec:f0:e6:b2:62:87:84:62:1b:42:
         da:26:34:c8:13:7d:6d:44:2e:b6:ee:ca:a7:77:9f:27:26:97:
         d9:f1:1a:c0:5a:52:19:1d:87:93:e5:22:aa:ba:1f:c1:e3:37:
         d8:2e:18:71:11:c2:e5:cd:44:15:fd:17:e5:f8:7a:a1:20:17:
         d4:8a:89:46
-----BEGIN CERTIFICATE-----
MIID5jCCAs6gAwIBAgIBAjANBgkqhkiG9w0BAQUFADCBpzEiMCAGA1UEAwwZRmFr
ZSBjZXJ0aWZ5aW5nIGF1dGhvcml0eTELMAkGA1UECAwCTUgxCzAJBgNVBAYTAklO
MSwwKgYJKoZIhvcNAQkBFh1jaGFuZHJha2FudC5hZ2Fya2FyQGxpbnV4LmNvbTEb
MBkGA1UECgwSTGludXggT3JnYW5pemF0aW9uMRwwGgYDVQQLDBNyYW5kb20gb3Jn
YW5pemF0aW9uMB4XDTE5MDYyODAzNDMwM1oXDTI0MDYyNjAzNDMwM1owgZQxDzAN
BgNVBAMMBmNsaWVudDELMAkGA1UECAwCTUgxCzAJBgNVBAYTAklOMSwwKgYJKoZI
hvcNAQkBFh1jaGFuZHJha2FudC5hZ2Fya2FyQGxpbnV4LmNvbTEbMBkGA1UECgwS
TGludXggT3JnYW5pemF0aW9uMRwwGgYDVQQLDBNjbGllbnQgb3JnYW5pemF0aW9u
MIIBIjANBgkqhkiG9w0BAQEFAAOCAQ8AMIIBCgKCAQEA6F7y5tY0fO0U06uuKPfR
VZwp1hRKFXtaV8hg+So+M0p0sLTV5ZqF22Y+9mCxj6dCQx+9TwCaH+iPpphUY9cD
fiYnQj91uSwdvvjKpJglkN/2VJyFU+CjJ1nOh94+UTy7RposaLLK8PdeiQ82vh+0
JJTYvXT3OOa2XqlgnxrOb8FTsg+axlc7LgGaj4EBAOFa9KTP73GXXlIm8IyVTA3T
Pq7gKnOhHryBTfqwj4Pq7j4Mn4hUZ3CrgrFd1xGwwYSCRTPh9vFTcWwPHw7AfUTm
5LzSxw10Qo3ioY0C5kZxvzJ8xHsLGB4siau9IvreV/YVaa358ByDjZ4ibGIW6iCc
iQIDAQABoy4wLDAJBgNVHRMEAjAAMAsGA1UdDwQEAwIF4DASBgNVHREECzAJggdj
bGllbnQuMA0GCSqGSIb3DQEBBQUAA4IBAQAgV8hxJsh3lyROSIpHASrbLaQEkWl+
l7puZZAUwTYScQyDJlFMZmKUsGHGp4vrkWE0m4oVxYPzLsWHSCJV3PdGJ4n9ZC+x
bO6wLEfZL0gJbev4ZEF2fcN7lQ5VD3rnihWZrMFnwI3nmLbcPgQYk2vAQDRQkEeV
pVIXnL7J/UV1rx/5MbVvOO1oH80lQ7fyBhIfhrkRXSyzfR58PErB37de3bn2wi4Y
H0Xatzbtb6HXBUIi2kENKCJHCQU4bOzw5rJih4RiG0LaJjTIE31tRC627sqnd58n
JpfZ8RrAWlIZHYeT5SKquh/B4zfYLhhxEcLlzUQV/Rfl+HqhIBfUiolG
-----END CERTIFICATE-----
