Certificate:
    Data:
        Version: 3 (0x2)
        Serial Number: 1 (0x1)
    Signature Algorithm: sha1WithRSAEncryption
        Issuer: CN=Fake certifying authority, ST=MH, C=IN/emailAddress=chandrakant.agarkar@linux.com, O=Linux Organization, OU=random organization
        Validity
            Not Before: Jun 28 03:43:03 2019 GMT
            Not After : Jun 26 03:43:03 2024 GMT
        Subject: CN=server, ST=MH, C=IN/emailAddress=chandrakant.agarkar@linux.com, O=Linux Organization, OU=server organization
        Subject Public Key Info:
            Public Key Algorithm: rsaEncryption
                Public-Key: (2048 bit)
                Modulus:
                    00:e5:3d:c5:97:34:f8:16:e0:96:51:fb:fb:b6:42:
                    c6:42:e3:fa:b2:b1:aa:ba:e6:4b:61:7d:51:63:89:
                    cf:a8:fc:0d:66:61:83:3a:74:b8:48:21:9f:ae:03:
                    45:86:8b:c7:44:c9:ae:81:26:df:25:56:a2:08:73:
                    bf:d6:69:5e:9b:e8:a1:ba:2f:c4:97:c6:f7:ba:df:
                    77:16:5d:1b:66:32:65:f8:42:7d:e8:9e:f4:e8:76:
                    bc:ee:c1:72:47:5d:56:11:f4:25:3d:a9:4d:66:92:
                    58:8d:90:d2:41:70:c1:00:ac:f0:a4:6b:76:44:9f:
                    a7:24:25:d1:da:d3:59:60:c2:ef:84:e5:cf:c4:15:
                    ce:f6:2d:4a:a9:c3:48:b7:b9:a3:0c:b7:7a:c1:3f:
                    ae:47:24:15:d9:40:ce:9b:85:eb:20:49:ad:1c:4c:
                    92:e5:9b:db:fd:da:c4:07:14:22:3b:20:61:b1:85:
                    be:b0:55:5e:6d:88:32:73:6a:10:38:9f:b0:dc:68:
                    c7:a8:38:2b:5b:31:a0:72:20:39:1d:03:24:33:54:
                    4c:85:24:ee:ac:af:f4:26:a0:89:90:05:4e:3a:d8:
                    04:5b:d9:51:86:a5:c1:76:57:59:c0:f0:e0:75:d2:
                    0e:ca:5b:1f:32:c0:d0:99:0c:fa:d0:84:5f:78:df:
                    e2:9b
                Exponent: 65537 (0x10001)
        X509v3 extensions:
            X509v3 Basic Constraints: 
                CA:FALSE
            X509v3 Key Usage: 
                Digital Signature, Non Repudiation, Key Encipherment
            X509v3 Subject Alternative Name: 
                DNS:server.
    Signature Algorithm: sha1WithRSAEncryption
         32:cc:65:04:fe:6f:e2:18:82:3d:59:26:b5:18:31:07:c0:00:
         72:db:02:38:4b:31:e9:3a:01:9b:ac:34:6e:0d:fe:0c:3a:c7:
         79:b9:78:b0:98:8e:54:ce:5d:3e:0f:2f:2a:96:2a:59:9e:73:
         a6:1c:62:f4:77:7d:3a:c7:74:f6:49:f1:5c:e5:fb:87:c4:87:
         18:05:7a:ad:a9:92:2f:a5:90:23:37:98:fe:54:c0:0e:2e:a7:
         68:67:0e:16:bd:c4:e2:cf:54:85:fa:6c:7e:30:8b:38:40:71:
         96:f1:7f:e1:ee:0b:31:f0:54:f9:f9:55:15:18:89:49:e9:0a:
         8b:43:d3:a6:5e:68:e2:5f:f2:2e:b5:3c:cd:b6:9c:d8:55:42:
         43:da:c8:b5:42:d8:6c:ce:a2:cb:92:1c:5f:00:72:2a:e8:d3:
         a6:f0:4d:48:71:47:9d:07:8f:d3:ef:00:2d:3a:a5:97:ee:a9:
         61:bd:6d:b3:bc:38:ce:50:2f:8d:5e:84:29:70:44:0e:ea:83:
         1e:c6:50:26:78:4d:f3:88:b5:b4:e8:d8:81:32:bf:1a:39:2a:
         0e:ad:c4:31:b6:4f:6a:59:d8:d8:67:1b:39:0d:f6:10:75:e0:
         1c:be:d9:ab:f7:20:18:cc:07:f5:2d:14:cb:18:98:22:c0:e4:
         14:c9:bc:f5
-----BEGIN CERTIFICATE-----
MIID5jCCAs6gAwIBAgIBATANBgkqhkiG9w0BAQUFADCBpzEiMCAGA1UEAwwZRmFr
ZSBjZXJ0aWZ5aW5nIGF1dGhvcml0eTELMAkGA1UECAwCTUgxCzAJBgNVBAYTAklO
MSwwKgYJKoZIhvcNAQkBFh1jaGFuZHJha2FudC5hZ2Fya2FyQGxpbnV4LmNvbTEb
MBkGA1UECgwSTGludXggT3JnYW5pemF0aW9uMRwwGgYDVQQLDBNyYW5kb20gb3Jn
YW5pemF0aW9uMB4XDTE5MDYyODAzNDMwM1oXDTI0MDYyNjAzNDMwM1owgZQxDzAN
BgNVBAMMBnNlcnZlcjELMAkGA1UECAwCTUgxCzAJBgNVBAYTAklOMSwwKgYJKoZI
hvcNAQkBFh1jaGFuZHJha2FudC5hZ2Fya2FyQGxpbnV4LmNvbTEbMBkGA1UECgwS
TGludXggT3JnYW5pemF0aW9uMRwwGgYDVQQLDBNzZXJ2ZXIgb3JnYW5pemF0aW9u
MIIBIjANBgkqhkiG9w0BAQEFAAOCAQ8AMIIBCgKCAQEA5T3FlzT4FuCWUfv7tkLG
QuP6srGquuZLYX1RY4nPqPwNZmGDOnS4SCGfrgNFhovHRMmugSbfJVaiCHO/1mle
m+ihui/El8b3ut93Fl0bZjJl+EJ96J706Ha87sFyR11WEfQlPalNZpJYjZDSQXDB
AKzwpGt2RJ+nJCXR2tNZYMLvhOXPxBXO9i1KqcNIt7mjDLd6wT+uRyQV2UDOm4Xr
IEmtHEyS5Zvb/drEBxQiOyBhsYW+sFVebYgyc2oQOJ+w3GjHqDgrWzGgciA5HQMk
M1RMhSTurK/0JqCJkAVOOtgEW9lRhqXBdldZwPDgddIOylsfMsDQmQz60IRfeN/i
mwIDAQABoy4wLDAJBgNVHRMEAjAAMAsGA1UdDwQEAwIF4DASBgNVHREECzAJggdz
ZXJ2ZXIuMA0GCSqGSIb3DQEBBQUAA4IBAQAyzGUE/m/iGII9WSa1GDEHwABy2wI4
SzHpOgGbrDRuDf4MOsd5uXiwmI5Uzl0+Dy8qlipZnnOmHGL0d306x3T2SfFc5fuH
xIcYBXqtqZIvpZAjN5j+VMAOLqdoZw4WvcTiz1SF+mx+MIs4QHGW8X/h7gsx8FT5
+VUVGIlJ6QqLQ9OmXmjiX/IutTzNtpzYVUJD2si1QthszqLLkhxfAHIq6NOm8E1I
cUedB4/T7wAtOqWX7qlhvW2zvDjOUC+NXoQpcEQO6oMexlAmeE3ziLW06NiBMr8a
OSoOrcQxtk9qWdjYZxs5DfYQdeAcvtmr9yAYzAf1LRTLGJgiwOQUybz1
-----END CERTIFICATE-----
